target datalayout = "e-m:e-p270:32:32-p271:32:32-p272:64:64-i64:64-i128:128-f80:128-n8:16:32:64-S128"
target triple = "x86_64-pc-linux-gnu"

%struct.cache_tree = type { i32, %struct.object_id, i32, i32, ptr }
%struct.object_id = type { [32 x i8], i32 }
%struct.cache_tree_sub = type { ptr, i32, i32, i32, [0 x i8] }

@the_repository = external global ptr, align 8

; Function Attrs: nounwind uwtable
define dso_local i32 @cache_tree_fully_valid(ptr noundef %0) #0 {
  %2 = alloca i32, align 4
  %3 = alloca ptr, align 8
  %4 = alloca i32, align 4
  %5 = alloca i32, align 4
  store ptr %0, ptr %3, align 8, !tbaa !4
  call void @llvm.lifetime.start.p0(i64 4, ptr %4) #10
  %6 = load ptr, ptr %3, align 8, !tbaa !4
  %7 = icmp ne ptr %6, null
  br i1 %7, label %9, label %8

8:                                                ; preds = %1
  store i32 0, ptr %2, align 4
  store i32 1, ptr %5, align 4
  br label %46

9:                                                ; preds = %1
  %10 = load ptr, ptr %3, align 8, !tbaa !4
  %11 = getelementptr inbounds nuw %struct.cache_tree, ptr %10, i32 0, i32 0
  %12 = load i32, ptr %11, align 8, !tbaa !9
  %13 = icmp slt i32 %12, 0
  br i1 %13, label %20, label %14

14:                                               ; preds = %9
  %15 = load ptr, ptr @the_repository, align 8, !tbaa !48
  %16 = load ptr, ptr %3, align 8, !tbaa !4
  %17 = getelementptr inbounds nuw %struct.cache_tree, ptr %16, i32 0, i32 1
  %18 = call i32 @repo_has_object_file(ptr noundef %15, ptr noundef %17)
  %19 = icmp ne i32 %18, 0
  br i1 %19, label %21, label %20

20:                                               ; preds = %14, %9
  store i32 0, ptr %2, align 4
  store i32 1, ptr %5, align 4
  br label %46

21:                                               ; preds = %14
  store i32 0, ptr %4, align 4, !tbaa !16
  br label %22

22:                                               ; preds = %42, %21
  %23 = load i32, ptr %4, align 4, !tbaa !16
  %24 = load ptr, ptr %3, align 8, !tbaa !4
  %25 = getelementptr inbounds nuw %struct.cache_tree, ptr %24, i32 0, i32 2
  %26 = load i32, ptr %25, align 8, !tbaa !17
  %27 = icmp slt i32 %23, %26
  br i1 %27, label %28, label %45

28:                                               ; preds = %22
  %29 = load ptr, ptr %3, align 8, !tbaa !4
  %30 = getelementptr inbounds nuw %struct.cache_tree, ptr %29, i32 0, i32 4
  %31 = load ptr, ptr %30, align 8, !tbaa !18
  %32 = load i32, ptr %4, align 4, !tbaa !16
  %33 = sext i32 %32 to i64
  %34 = getelementptr inbounds ptr, ptr %31, i64 %33
  %35 = load ptr, ptr %34, align 8, !tbaa !19
  %36 = getelementptr inbounds nuw %struct.cache_tree_sub, ptr %35, i32 0, i32 0
  %37 = load ptr, ptr %36, align 8, !tbaa !4
  %38 = call i32 @cache_tree_fully_valid(ptr noundef %37)
  %39 = icmp ne i32 %38, 0
  br i1 %39, label %41, label %40

40:                                               ; preds = %28
  store i32 0, ptr %2, align 4
  store i32 1, ptr %5, align 4
  br label %46

41:                                               ; preds = %28
  br label %42

42:                                               ; preds = %41
  %43 = load i32, ptr %4, align 4, !tbaa !16
  %44 = add nsw i32 %43, 1
  store i32 %44, ptr %4, align 4, !tbaa !16
  br label %22, !llvm.loop !49

45:                                               ; preds = %22
  store i32 1, ptr %2, align 4
  store i32 1, ptr %5, align 4
  br label %46

46:                                               ; preds = %45, %40, %20, %8
  call void @llvm.lifetime.end.p0(i64 4, ptr %4) #10
  %47 = load i32, ptr %2, align 4
  ret i32 %47
}