; Function Attrs: nounwind uwtable
define dso_local range(i32 0, 2) i32 @cache_tree_fully_valid(ptr noundef %0) local_unnamed_addr #0 {
  %.not = icmp eq ptr %0, null
  br i1 %.not, label %.loopexit, label %2

2:                                                ; preds = %1
  %3 = load i32, ptr %0, align 8, !tbaa !4
  %4 = icmp slt i32 %3, 0
  br i1 %4, label %.loopexit, label %5

5:                                                ; preds = %2
  %6 = load ptr, ptr @the_repository, align 8, !tbaa !40
  %7 = getelementptr inbounds nuw i8, ptr %0, i64 4
  %8 = tail call i32 @repo_has_object_file(ptr noundef %6, ptr noundef nonnull %7) #18
  %.not10 = icmp eq i32 %8, 0
  br i1 %.not10, label %.loopexit, label %.preheader

.preheader:                                       ; preds = %5
  %9 = getelementptr inbounds nuw i8, ptr %0, i64 48
  %10 = getelementptr inbounds nuw i8, ptr %0, i64 40
  %11 = load i32, ptr %10, align 8, !tbaa !14
  %12 = icmp sgt i32 %11, 0
  br i1 %12, label %.lr.ph, label %.loopexit

13:                                               ; preds = %.lr.ph
  %indvars.iv.next = add nuw nsw i64 %indvars.iv, 1
  %14 = load i32, ptr %10, align 8, !tbaa !14
  %15 = sext i32 %14 to i64
  %16 = icmp slt i64 %indvars.iv.next, %15
  br i1 %16, label %.lr.ph, label %.loopexit, !llvm.loop !41

.lr.ph:                                           ; preds = %.preheader, %13
  %indvars.iv = phi i64 [ %indvars.iv.next, %13 ], [ 0, %.preheader ]
  %17 = load ptr, ptr %9, align 8, !tbaa !15
  %18 = getelementptr inbounds nuw ptr, ptr %17, i64 %indvars.iv
  %19 = load ptr, ptr %18, align 8, !tbaa !16
  %20 = load ptr, ptr %19, align 8, !tbaa !12
  %21 = tail call i32 @cache_tree_fully_valid(ptr noundef %20)
  %.not11 = icmp eq i32 %21, 0
  br i1 %.not11, label %.loopexit, label %13

.loopexit:                                        ; preds = %.lr.ph, %13, %.preheader, %2, %5, %1
  %.08 = phi i32 [ 0, %1 ], [ 0, %5 ], [ 0, %2 ], [ 1, %.preheader ], [ 0, %.lr.ph ], [ 1, %13 ]
  ret i32 %.08
}